; Function Attrs: mustprogress nofree norecurse nosync nounwind willreturn memory(read, inaccessiblemem: none) uwtable
define hidden noundef i64 @_ZNK6google8protobuf20stringpiece_internal11StringPiece16find_last_not_ofES2_m(ptr noundef nonnull readonly align 8 captures(none) dereferenceable(16) %0, ptr readonly captures(none) %1, i64 %2, i64 noundef %3) local_unnamed_addr #9 align 2 {
  %5 = alloca [256 x i8], align 16
  %6 = getelementptr inbounds nuw i8, ptr %0, i64 8
  %7 = load i64, ptr %6, align 8, !tbaa !10
  %8 = icmp eq i64 %7, 0
  br i1 %8, label %_ZNK6google8protobuf20stringpiece_internal11StringPiece16find_last_not_ofEcm.exit, label %9

9:                                                ; preds = %4
  %10 = add i64 %7, -1
  %.sroa.speculated = tail call i64 @llvm.umin.i64(i64 %10, i64 %3)
  switch i64 %2, label %21 [
    i64 0, label %_ZNK6google8protobuf20stringpiece_internal11StringPiece16find_last_not_ofEcm.exit
    i64 1, label %11
  ]

11:                                               ; preds = %9
  %12 = load i8, ptr %1, align 1, !tbaa !16
  %13 = load ptr, ptr %0, align 8, !tbaa !3
  %14 = getelementptr inbounds nuw i8, ptr %13, i64 %.sroa.speculated
  %15 = load i8, ptr %14, align 1, !tbaa !16
  %.not10.i = icmp eq i8 %15, %12
  br i1 %.not10.i, label %.lr.ph.i, label %_ZNK6google8protobuf20stringpiece_internal11StringPiece16find_last_not_ofEcm.exit

.lr.ph.i:                                         ; preds = %11, %17
  %.011.i = phi i64 [ %18, %17 ], [ %.sroa.speculated, %11 ]
  %16 = icmp eq i64 %.011.i, 0
  br i1 %16, label %_ZNK6google8protobuf20stringpiece_internal11StringPiece16find_last_not_ofEcm.exit, label %17

17:                                               ; preds = %.lr.ph.i
  %18 = add i64 %.011.i, -1
  %19 = getelementptr inbounds nuw i8, ptr %13, i64 %18
  %20 = load i8, ptr %19, align 1, !tbaa !16
  %.not.i = icmp eq i8 %20, %12
  br i1 %.not.i, label %.lr.ph.i, label %_ZNK6google8protobuf20stringpiece_internal11StringPiece16find_last_not_ofEcm.exit, !llvm.loop !28

21:                                               ; preds = %9
  call void @llvm.lifetime.start.p0(i64 256, ptr nonnull %5) #15
  call void @llvm.memset.p0.i64(ptr noundef nonnull align 16 dereferenceable(256) %5, i8 0, i64 256, i1 false)
  br label %.lr.ph.i8

.lr.ph.i8:                                        ; preds = %21, %.lr.ph.i8
  %.05.i = phi i64 [ %26, %.lr.ph.i8 ], [ 0, %21 ]
  %22 = getelementptr inbounds nuw i8, ptr %1, i64 %.05.i
  %23 = load i8, ptr %22, align 1, !tbaa !16
  %24 = zext i8 %23 to i64
  %25 = getelementptr inbounds nuw i8, ptr %5, i64 %24
  store i8 1, ptr %25, align 1, !tbaa !19
  %26 = add nuw i64 %.05.i, 1
  %exitcond.not.i = icmp eq i64 %26, %2
  br i1 %exitcond.not.i, label %_ZN6google8protobuf20stringpiece_internalL16BuildLookupTableENS1_11StringPieceEPb.exit.preheader, label %.lr.ph.i8, !llvm.loop !21

_ZN6google8protobuf20stringpiece_internalL16BuildLookupTableENS1_11StringPieceEPb.exit.preheader: ; preds = %.lr.ph.i8
  %27 = load ptr, ptr %0, align 8, !tbaa !3
  %28 = getelementptr inbounds nuw i8, ptr %27, i64 %.sroa.speculated
  %29 = load i8, ptr %28, align 1, !tbaa !16
  %30 = zext i8 %29 to i64
  %31 = getelementptr inbounds nuw [256 x i8], ptr %5, i64 0, i64 %30
  %32 = load i8, ptr %31, align 1, !tbaa !19, !range !22, !noundef !23
  %33 = trunc nuw i8 %32 to i1
  br i1 %33, label %.lr.ph, label %._crit_edge

.lr.ph:                                           ; preds = %_ZN6google8protobuf20stringpiece_internalL16BuildLookupTableENS1_11StringPieceEPb.exit.preheader, %_ZN6google8protobuf20stringpiece_internalL16BuildLookupTableENS1_11StringPieceEPb.exit
  %.0615 = phi i64 [ %35, %_ZN6google8protobuf20stringpiece_internalL16BuildLookupTableENS1_11StringPieceEPb.exit ], [ %.sroa.speculated, %_ZN6google8protobuf20stringpiece_internalL16BuildLookupTableENS1_11StringPieceEPb.exit.preheader ]
  %34 = icmp eq i64 %.0615, 0
  br i1 %34, label %._crit_edge, label %_ZN6google8protobuf20stringpiece_internalL16BuildLookupTableENS1_11StringPieceEPb.exit

_ZN6google8protobuf20stringpiece_internalL16BuildLookupTableENS1_11StringPieceEPb.exit: ; preds = %.lr.ph
  %35 = add i64 %.0615, -1
  %36 = getelementptr inbounds nuw i8, ptr %27, i64 %35
  %37 = load i8, ptr %36, align 1, !tbaa !16
  %38 = zext i8 %37 to i64
  %39 = getelementptr inbounds nuw [256 x i8], ptr %5, i64 0, i64 %38
  %40 = load i8, ptr %39, align 1, !tbaa !19, !range !22, !noundef !23
  %41 = trunc nuw i8 %40 to i1
  br i1 %41, label %.lr.ph, label %._crit_edge, !llvm.loop !29

._crit_edge:                                      ; preds = %_ZN6google8protobuf20stringpiece_internalL16BuildLookupTableENS1_11StringPieceEPb.exit, %.lr.ph, %_ZN6google8protobuf20stringpiece_internalL16BuildLookupTableENS1_11StringPieceEPb.exit.preheader
  %.2 = phi i64 [ %.sroa.speculated, %_ZN6google8protobuf20stringpiece_internalL16BuildLookupTableENS1_11StringPieceEPb.exit.preheader ], [ -1, %.lr.ph ], [ %35, %_ZN6google8protobuf20stringpiece_internalL16BuildLookupTableENS1_11StringPieceEPb.exit ]
  call void @llvm.lifetime.end.p0(i64 256, ptr nonnull %5) #15
  br label %_ZNK6google8protobuf20stringpiece_internal11StringPiece16find_last_not_ofEcm.exit

_ZNK6google8protobuf20stringpiece_internal11StringPiece16find_last_not_ofEcm.exit: ; preds = %17, %.lr.ph.i, %9, %11, %._crit_edge, %4
  %.0 = phi i64 [ -1, %4 ], [ %.2, %._crit_edge ], [ %.sroa.speculated, %9 ], [ %.sroa.speculated, %11 ], [ %18, %17 ], [ -1, %.lr.ph.i ]
  ret i64 %.0
}